(lp0
F2.1296986476413598e-06
aF3.2843545409408885e-06
aF2.3264177998331325e-06
aF3.014934832504338e-06
aF2.5094521414376486e-06
aF3.014934832504342e-06
aF2.890305307513272e-06
aF2.8289069385838553e-06
aF2.903745746482918e-06
aF2.8994692431743506e-06
aF3.2831882218567384e-06
aF3.8007423154442766e-06
aF2.7921948024891932e-05
aF5.359069574615651e-06
aF5.232729448301092e-06
aF4.923324433930027e-06
aF3.9213019748917815e-06
aF3.1867077153963704e-06
aF4.1830954730938765e-06
aF3.1958309224545955e-06
aF3.226316281753879e-06
aF3.233619660780729e-06
aF4.8010257360526995e-06
aF3.990512149759731e-06
aF5.203649225803342e-06
aF4.2746940186554595e-06
aF5.941488596632636e-06
aF6.018414745432299e-06
aF5.037573431801465e-06
aF4.9350848180283826e-06
aF4.456806206072701e-06
aF4.4714851312394755e-06
aF5.737123574889246e-06
aF4.255246571483397e-06
aF7.161798997868698e-06
aF3.2740196579453264e-06
aF5.655039929075807e-06
aF6.713209877885251e-06
aF3.6955567821444614e-06
aF4.286339266126482e-06
aF3.2665183929957188e-06
aF4.272837734252398e-06
aF3.31777093888647e-06
aF4.162301231528084e-06
aF3.387845921006827e-06
aF4.008385144565499e-06
aF4.15894496224849e-06
aF3.550834153352838e-06
aF4.431679285711513e-06
aF3.5730185142658357e-06
aF4.275748631462388e-06
aF3.551060314585455e-06
aF1.2207399727273661e-05
aF4.507672070693904e-06
aF3.5110869708976365e-06
aF4.4587128959117895e-06
aF4.413351414389316e-06
aF3.6092950595723807e-06
aF5.406442462355157e-06
aF6.349965937651173e-06
aF3.4986704526480014e-06
aF4.379829146519132e-06
aF5.523613130486147e-06
aF4.440413661888562e-06
aF3.576472613091985e-06
aF3.989977586846221e-06
aF4.019083340707219e-06
aF1.141222641730434e-05
aF4.288217208883558e-06
aF3.6778539382288526e-06
aF4.427084410929319e-06
aF4.304478767659998e-06
aF4.381014019508596e-06
aF4.339148302928007e-06
aF5.875744485769848e-06
aF6.968956029690592e-06
aF3.868680402095419e-06
aF4.579477119835489e-06
aF4.611640422226127e-06
aF4.171835890040942e-06
aF9.396586491891246e-06
aF4.304613494898421e-06
aF5.61422445790273e-06
aF5.560217962376887e-06
aF4.581191591297544e-06
aF5.96064998354977e-06
aF6.589354270267821e-06
aF4.626204647244957e-06
aF4.148544563454104e-06
aF6.481896064718829e-06
aF4.744944901695856e-06
aF1.275420628033493e-05
aF4.333891223882742e-06
aF4.192520062691991e-06
aF5.879966970089172e-06
aF3.984765598438975e-06
aF4.034417951124431e-06
aF3.822801217714343e-06
aF3.7541219498311194e-06
aF3.6142012411267024e-06
aF3.860031164530931e-06
aF9.199387514164977e-06
aF3.595376737873855e-06
aF3.731783699594559e-06
aF3.852885109356071e-06
aF4.445667255428276e-06
aF3.802331016439843e-06
aF3.6661512529844873e-06
aF3.5820227115988774e-06
aF7.829966539471493e-06
aF3.7054167450739792e-06
aF3.8719919152093086e-06
aF4.337055567752169e-06
aF3.992678536304289e-06
aF4.17539189550932e-06
aF4.07093621844553e-06
aF3.691938202422064e-06
aF3.6451029641017945e-06
aF7.780396998295913e-06
aF3.587130975183816e-06
aF3.8919007547705145e-06
aF3.7322306292436876e-06
aF3.7291108850265024e-06
aF3.9734233804907205e-06
aF3.6541523350349787e-06
aF7.886992137485623e-06
aF4.138476638740327e-06
aF4.463667148628739e-06
aF4.196343734873309e-06
aF5.322174159807684e-06
aF4.869337660292856e-06
aF4.365629525196598e-06
aF4.0766973569444456e-06
aF7.79526767633141e-06
aF3.979048745057846e-06
aF3.861965491485881e-06
aF4.163035501754331e-06
aF4.016845183719295e-06
aF4.707045663188504e-06
aF7.473097892276633e-06
aF3.6939889642374486e-06
aF4.013558587483924e-06
aF3.8373692205289835e-06
aF3.6580140175226006e-06
aF3.957240216691239e-06
aF3.911243060179841e-06
aF7.71551017318603e-06
aF4.022484791049328e-06
aF4.6742468175732625e-06
aF6.858656006199126e-06
aF4.854567606729544e-06
aF4.147139083434144e-06
aF7.85652354878756e-06
aF4.120272090245987e-06
aF4.093275834502804e-06
aF3.68215158908141e-06
aF3.842887664130849e-06
aF3.7869790120745842e-06
aF7.4482970548282305e-06
aF3.856791236928392e-06
aF3.844549912225236e-06
aF3.7778947005505537e-06
aF3.7287435779974503e-06
aF4.44073146605897e-06
aF7.652997057108714e-06
aF4.01177229648338e-06
aF3.9461882415911185e-06
aF3.8761156862559306e-06
aF3.833821954197042e-06
aF4.611605076592294e-06
aF1.188912935592026e-05
aF6.381189384478132e-06
aF3.8266794316110925e-06
aF3.834696277059181e-06
aF3.8684271442371755e-06
aF6.8701296701895684e-06
aF3.834138906961074e-06
aF4.085550228206582e-06
aF3.959158093726808e-06
aF3.94642852815884e-06
aF6.954799361240317e-06
aF3.896434951288304e-06
aF3.826488968562553e-06
aF3.845157520998759e-06
aF4.833604550326896e-06
aF4.189524749285086e-06
aF7.058700311229518e-06
aF3.983699316031446e-06
aF3.88998886663226e-06
aF4.093626522303308e-06
aF3.972714843121983e-06
aF6.902543621403097e-06
aF3.7781244877084472e-06
aF4.021786835682552e-06
aF4.857120873097825e-06
aF7.989577306143471e-06
aF4.419147487400844e-06
aF3.9792215330739655e-06
aF4.048516255251482e-06
aF4.311934138426566e-06
a.