(lp0
F5.3370761290949535e-06
aF2.970031547828711e-06
aF3.596539282462175e-06
aF4.7789924472319e-06
aF5.257533167458916e-06
aF6.160303015937765e-06
aF6.779479602059268e-06
aF7.522903882590803e-06
aF8.259353389835017e-06
aF9.210305175542997e-06
aF9.68627999381123e-06
aF1.1420402085411396e-05
aF1.1225821184878052e-05
aF1.2023999980915586e-05
aF1.2755954068604561e-05
aF1.392322564668813e-05
aF1.5607476162940808e-05
aF1.564915110697661e-05
aF4.708025000260369e-05
aF1.6455770906008027e-05
aF1.7180546577438893e-05
aF1.797880868205355e-05
aF1.939208315484881e-05
aF1.945809005374629e-05
aF2.0434843409395852e-05
aF2.1045330704806492e-05
aF2.2704906398980785e-05
aF2.337170151007888e-05
aF2.3384657419130946e-05
aF2.4690391851734717e-05
aF2.4741502963827595e-05
aF2.6933551477772436e-05
aF2.696685231747046e-05
aF2.6846504196264848e-05
aF2.8324625456213377e-05
aF2.8456209390148348e-05
aF3.107827419234265e-05
aF3.5543482011384245e-05
aF3.608020049038138e-05
aF3.337821523558304e-05
aF3.2928658255731316e-05
aF3.350029413180099e-05
aF3.489656535821298e-05
aF3.487264903603979e-05
aF3.5406881492475706e-05
aF3.736455314619437e-05
aF3.8255141883308974e-05
aF4.0656449672565505e-05
aF3.8656098885885324e-05
aF3.898349226957692e-05
aF4.1132163498385876e-05
aF4.128141539888693e-05
aF4.717749692339355e-05
aF4.222714400236808e-05
aF4.394597003517798e-05
aF4.411426987897395e-05
aF4.5009297005665276e-05
aF4.514394864978828e-05
aF4.637041530668236e-05
aF4.706805071420206e-05
aF4.836851433834872e-05
aF4.836559699869453e-05
aF4.938180191852927e-05
aF5.1239659414985535e-05
aF5.046537073488475e-05
aF5.218092143796517e-05
aF5.209278891352674e-05
aF5.7921275259337537e-05
aF5.385028746560358e-05
aF5.374739904596737e-05
aF5.4864766756000606e-05
aF5.581549568164392e-05
aF5.6384993135950107e-05
aF5.780821137870886e-05
aF5.907339292212726e-05
aF5.8819251584455736e-05
aF5.917836386124883e-05
aF6.159891813676101e-05
aF6.178091104363719e-05
aF6.188650887221491e-05
aF6.71981219878122e-05
aF6.366440905885721e-05
aF6.445994046581498e-05
aF6.52090388418409e-05
aF6.522281349489928e-05
aF6.718933692291562e-05
aF6.730006989427001e-05
aF6.8227625363861e-05
aF6.890960423887302e-05
aF7.073122647120458e-05
aF6.981452744057584e-05
aF7.461140948400514e-05
aF7.204225063873005e-05
aF7.199729892409881e-05
aF7.381114164610156e-05
aF7.378144245603346e-05
aF7.505726226910109e-05
aF7.547666145883509e-05
aF7.55901765712726e-05
aF7.675985595026305e-05
aF7.873482943795179e-05
aF8.226885505905278e-05
aF7.974499518016648e-05
aF7.978635214497693e-05
aF8.106380830071608e-05
aF8.176234572241335e-05
aF8.451793374245696e-05
aF8.326340062505641e-05
aF8.372008518748562e-05
aF8.812240472135552e-05
aF8.522655001662122e-05
aF8.683390329954958e-05
aF8.635985919284569e-05
aF8.780449069310586e-05
aF8.811151231531726e-05
aF8.921077146185702e-05
aF8.90380050765498e-05
aF9.085848056808549e-05
aF9.530557774156522e-05
aF9.619844514896294e-05
aF9.273010730675837e-05
aF9.300038133090527e-05
aF9.401569178402292e-05
aF9.495192720547587e-05
aF9.57603858090431e-05
aF0.00010027270039742123
aF9.741517600305293e-05
aF9.808220476409167e-05
aF9.844739359406015e-05
aF0.00010036219680287345
aF0.00010117322146724168
aF0.00010106115986778931
aF0.00010176212932979506
aF0.00010568318375432538
aF0.00010490642749417659
aF0.00010439192990621935
aF0.00010584036656585729
aF0.0001078654062435593
aF0.00010582268969348803
aF0.00011015545517173767
aF0.00010804021474483864
aF0.0001091682876270744
aF0.00010999008009733402
aF0.00011027115240501632
aF0.00011090235384789424
aF0.00011141251867375684
aF0.0001159316409149978
aF0.00011286015858452363
aF0.00011349569987976662
aF0.00011574826619866485
aF0.00011487075887309714
aF0.00011624219670380947
aF0.0001207817022074785
aF0.00011795693020218323
aF0.00011807469779367536
aF0.00011902503817027947
aF0.00012016331459492153
aF0.00012063100986415233
aF0.00012496015287354113
aF0.0001228383077619579
aF0.00012292152675667646
aF0.0001245724823199781
aF0.0001250311302548309
aF0.00012427609881382885
aF0.0001302259793766239
aF0.0001268759699708238
aF0.0001274749325011981
aF0.000128444776871277
aF0.0001293777884304002
aF0.0001310014466404756
aF0.00013359443711847361
aF0.00013144287918790364
aF0.00013194312961541848
aF0.0001333835483301326
aF0.00013256571320802746
aF0.00013762907799095197
aF0.0001356988137291091
aF0.00013499830196390359
aF0.00013644929207517654
aF0.00013716670536901177
aF0.00014139714766541554
aF0.00013845811537910205
aF0.00013848130949669856
aF0.00014052538739681167
aF0.00014120519237313276
aF0.00014246591375100803
aF0.00014507616684514545
aF0.00014340457687579152
aF0.00014362873945172712
aF0.00014423623800414472
aF0.00014543619772876978
aF0.00014955900965171113
aF0.0001467892034209707
aF0.0001541357823218301
aF0.00015710886270112466
aF0.00016339303829428263
aF0.00014943982484758782
aF0.00015092382773947046
aF0.00015126772288005585
aF0.000153324318464351
a.