(lp0
F1.7448133490916007e-06
aF1.9821592837843128e-06
aF2.1596341707663667e-06
aF2.1425281575204736e-06
aF2.116869138717447e-06
aF2.2109522106461554e-06
aF2.375292123458296e-06
aF2.338178184402295e-06
aF2.43760688609503e-06
aF2.4850760727872512e-06
aF2.520415540785011e-06
aF2.5680402368758825e-06
aF2.5895872346382023e-06
aF2.5924773986827993e-06
aF2.626628332109249e-06
aF2.775183366097167e-06
aF3.1107788184084816e-06
aF2.945798029164356e-06
aF2.822492183680113e-06
aF2.8199262814041506e-06
aF2.767508569398896e-06
aF2.8189932263248094e-06
aF2.8609807135946697e-06
aF2.8796904155115043e-06
aF2.873810223468354e-06
aF2.8984823579164114e-06
aF3.0904863908702923e-06
aF3.169347148233978e-06
aF3.2073774813484147e-06
aF3.038883250781055e-06
aF3.121709463419891e-06
aF3.021750509226706e-06
aF3.114071954817546e-06
aF3.071912950394349e-06
aF3.0233656533645058e-06
aF3.0666092474026153e-06
aF3.0333122382413616e-06
aF3.0719923895772858e-06
aF3.073161069798912e-06
aF3.0646491833721258e-06
aF3.096918530040856e-06
aF3.11298894388301e-06
aF3.1035479592150676e-06
aF3.142063612864893e-06
aF3.173735655284165e-06
aF3.210724309830628e-06
aF3.1860859541637263e-06
aF3.1833221501761004e-06
aF3.2092102688990536e-06
aF3.183001412548947e-06
aF3.2108993075125373e-06
aF3.207130759997986e-06
aF3.230131706508696e-06
aF3.2696243626109785e-06
aF3.239101360277759e-06
aF3.2596119145620965e-06
aF3.2661231321490532e-06
aF3.300723226030202e-06
aF3.3430658575205877e-06
aF3.2802918629405057e-06
aF3.341982175733333e-06
aF3.2893208027057735e-06
aF3.330377862577431e-06
aF3.4016242801815363e-06
aF3.405346688369859e-06
aF3.327508346832143e-06
aF3.363629423296543e-06
aF3.55113287973134e-06
aF3.368211192649313e-06
aF3.376177176367687e-06
aF3.3844608576857076e-06
aF3.3727356093512152e-06
aF3.4015775972813125e-06
aF3.4110892943624854e-06
aF3.404438753887007e-06
aF3.3961063247476743e-06
aF3.596761438590473e-06
aF3.426794997344528e-06
aF3.4189831958313712e-06
aF3.4415160375758092e-06
aF3.447495222824301e-06
aF3.4442540426517196e-06
aF3.4834438034010186e-06
aF3.4534291538756453e-06
aF3.4612508425599277e-06
aF3.664764428102645e-06
aF3.456299467048906e-06
aF3.4543455473629535e-06
aF3.465985805013425e-06
aF3.4830693946269597e-06
aF3.491177519507161e-06
aF3.5935178399943587e-06
aF3.4863158585203668e-06
aF3.485122723120978e-06
aF3.5405395971709268e-06
aF3.537069158353982e-06
aF3.5191213464537852e-06
aF3.5359700315350948e-06
aF3.5299295035658835e-06
aF3.5456916579562404e-06
a.