(lp0
F4.785407202803071e-06
aF2.418362619209802e-06
aF2.3649063285802185e-06
aF2.652501176783062e-06
aF2.5120180437170347e-06
aF2.324279548039006e-06
aF3.520784080056469e-06
aF2.4793027926506285e-06
aF2.364906329022334e-06
aF2.6300495347868493e-06
aF2.5495735175437317e-06
aF2.8438747007915787e-06
aF2.633997076574045e-06
aF2.891221701060788e-06
aF3.995109390530159e-06
aF4.321941156639752e-06
aF4.577116335573973e-06
aF4.163175970733037e-06
aF3.6921979092372378e-06
aF3.296542575014882e-06
aF3.0497577884467487e-06
aF3.540361579878622e-06
aF3.2698516163582497e-06
aF3.613110732866669e-06
aF3.535299755071719e-06
aF2.9769397454734083e-06
aF3.2339868353245844e-06
aF3.162015999821831e-06
aF3.084391145095871e-06
aF3.122275065834401e-06
aF3.1899955644854756e-06
aF3.3633362117235777e-06
aF3.3232318432310695e-06
aF3.4496288156513887e-06
aF3.0955774664594826e-06
aF3.440090536423036e-06
aF3.4823450861544242e-06
aF3.3272321138162243e-06
aF3.378108651773824e-06
aF3.502456209886873e-06
aF3.364773664038805e-06
aF3.5235332614054942e-06
aF3.3732660282762585e-06
aF3.328674666404781e-06
aF3.3658932040402258e-06
aF3.3267477041190235e-06
aF4.453750722407366e-06
aF3.6211291768140087e-06
aF3.524711481898577e-06
aF3.570709202631406e-06
aF3.7811836016227933e-06
aF3.717597221806885e-06
aF3.612838408232491e-06
aF3.5768198505765957e-06
aF3.4532375441668503e-06
aF3.597532041967253e-06
aF3.7601718036596234e-06
aF3.67941496725852e-06
aF3.6233580321407516e-06
aF3.760543184408031e-06
aF3.775451355263762e-06
aF3.598470606376733e-06
aF3.660483188999327e-06
aF3.6068964389990298e-06
aF3.7400982091377536e-06
aF3.716086988440497e-06
aF3.511264529698334e-06
aF3.638298079547506e-06
aF3.844576474363379e-06
aF3.7399854221007444e-06
aF3.790307044953448e-06
aF3.6997099248105143e-06
aF3.7553557272092007e-06
aF3.898437299982549e-06
aF3.758704287997716e-06
aF3.7889256618116537e-06
aF3.6422478828328234e-06
aF3.6878261801995484e-06
aF3.870939222522368e-06
aF3.715105336652868e-06
aF3.6660720585247462e-06
aF3.7662434504443635e-06
aF3.9111456584350894e-06
aF3.790509254126088e-06
aF3.831495405205822e-06
aF3.909569379305954e-06
aF3.937627287729716e-06
aF3.976127547428053e-06
aF4.0101588383881945e-06
aF3.923264135260575e-06
aF3.897633312204151e-06
aF3.87771937511161e-06
aF3.7746349526744495e-06
aF3.818417012662104e-06
aF3.879508753991439e-06
aF3.753968060387081e-06
aF3.93707239116868e-06
aF3.973744329456093e-06
aF4.235941322616956e-06
aF4.056691038408644e-06
a.