(lp0
F1.6806657998813534e-06
aF1.8731084495016148e-06
aF1.9842975344393682e-06
aF2.055928965489784e-06
aF1.914162880780168e-06
aF2.0078183033926206e-06
aF2.0820461828309687e-06
aF2.2114867738309843e-06
aF2.429053878674697e-06
aF2.5274134555957063e-06
aF2.3862888463099805e-06
aF2.3200030445498966e-06
aF2.6517610130947733e-06
aF2.540242965705732e-06
aF2.3914206503832246e-06
aF2.5065655018963184e-06
aF2.624012118684839e-06
aF2.545232219467329e-06
aF2.4585392442962696e-06
aF2.6031075639707524e-06
aF2.705804736089184e-06
aF2.557154592156249e-06
aF2.546378817842394e-06
aF2.509238316363849e-06
aF2.5730865108016586e-06
aF2.5905741197089603e-06
aF2.6405032098687624e-06
aF2.676785606366495e-06
aF2.631819122323828e-06
aF2.698045937487829e-06
aF2.685092270901864e-06
aF2.7054229055423204e-06
aF2.8621470324086464e-06
aF2.7598539885034637e-06
aF2.650943308042639e-06
aF2.6763783204981134e-06
aF2.672005499685051e-06
aF2.721881816413722e-06
aF2.915917332652148e-06
aF2.7532128299583293e-06
aF2.8131047373812537e-06
aF2.762621137462485e-06
aF2.8120495591507323e-06
aF2.814619529813585e-06
aF2.790846059320352e-06
aF2.795717554506708e-06
aF2.8082978322205e-06
aF2.784805497964745e-06
aF2.8201357430269086e-06
aF2.8301898895051633e-06
aF2.8466418492219723e-06
aF2.8772643221722877e-06
aF2.922707600579894e-06
aF2.930830267410379e-06
aF2.9267611096718775e-06
aF2.9544528571839076e-06
aF2.9890507336036984e-06
aF3.4363178737400065e-06
aF3.050813970653739e-06
aF2.9599817649360226e-06
aF2.9747637440740634e-06
aF3.094601950445233e-06
aF2.9984397483278574e-06
aF2.997294256550376e-06
aF2.9097328511117945e-06
aF2.9208517596767898e-06
aF2.9381492582876774e-06
aF2.942863173817547e-06
aF2.966219881553089e-06
aF2.966182694990494e-06
aF3.0149348325206206e-06
aF3.1489319364257855e-06
aF2.9676589672020134e-06
aF2.967257599610437e-06
aF3.1601648849118644e-06
aF3.0015988945302454e-06
aF3.006937215943324e-06
aF3.021843030013863e-06
aF3.0508249804663853e-06
aF3.022953276264673e-06
aF3.0711629317900944e-06
aF3.1646646007743582e-06
aF3.0336380939457107e-06
aF3.0971047887768626e-06
aF3.085874475693665e-06
aF3.177690592217671e-06
aF3.218584869404074e-06
aF3.1105729974647353e-06
aF3.1194448853207843e-06
aF3.0695315247599965e-06
aF3.0490528698155087e-06
aF3.0729465296244403e-06
aF3.2042045917703316e-06
aF3.1102007679048762e-06
aF3.1501173529800565e-06
aF3.099529413681523e-06
aF3.1007735120902375e-06
aF3.116392691563816e-06
aF3.0991689885121276e-06
aF3.1305287168777336e-06
a.