(lp0
F3.2073774809759925e-06
aF6.697004182001366e-06
aF6.974976896572116e-06
aF6.995290287648004e-06
aF8.080025350864163e-06
aF9.590058669554462e-06
aF1.1282637586061485e-05
aF1.2701214825838748e-05
aF1.4366200113360921e-05
aF1.7058116396810872e-05
aF1.8839552165921056e-05
aF1.955431137782663e-05
aF2.0593337202005668e-05
aF2.2098830846744022e-05
aF2.3618272472428243e-05
aF2.522682573516732e-05
aF2.6821222515255773e-05
aF2.818144405251941e-05
aF2.995352948956727e-05
aF3.163115672151662e-05
aF3.3125183698719714e-05
aF3.492192601715839e-05
aF3.6926118589433275e-05
aF3.8838668485112754e-05
aF4.175081756025065e-05
aF4.301833366602418e-05
aF4.3959603009377e-05
aF4.570146353561962e-05
aF4.855704068686777e-05
aF5.025147977681854e-05
aF5.107262359302006e-05
aF5.2904087866600945e-05
aF6.203145803591737e-05
aF6.1025073314825096e-05
aF5.822068259942625e-05
aF6.140096537810298e-05
aF6.164510170518693e-05
aF6.38528085177744e-05
aF6.916717762626726e-05
aF6.75037494240911e-05
aF6.902307631399132e-05
aF7.056933027461994e-05
aF7.222835071697879e-05
aF7.50398035545562e-05
aF7.566303263691529e-05
aF7.724759487158309e-05
aF8.03809742078653e-05
aF8.250684561232902e-05
aF8.3242049624659e-05
aF8.463679015929983e-05
aF8.757750501900978e-05
aF8.930523170665065e-05
aF8.974193779668328e-05
aF9.121163839927878e-05
aF9.468364936066626e-05
aF9.535052145566729e-05
aF9.843520268065587e-05
aF9.939441616375949e-05
aF0.00010042940369748592
aF0.00010464218710651114
aF0.00010650722628429508
aF0.0001074740462117109
aF0.00011075695554370306
aF0.00010933067805262377
aF0.00011764996142728879
aF0.00011310146054656247
aF0.00011539359088593851
aF0.00011606442557280996
aF0.00011909225007074205
aF0.00012070644413438459
aF0.00012203357562279673
aF0.00012354550776845957
aF0.00012733903714601252
aF0.00012822089614428632
aF0.0001304258242641254
aF0.00013050835852686308
aF0.00013360851576934448
aF0.00013536695539962022
aF0.00013504033589801042
aF0.00013750989475949638
a.