(lp0
I9
aI19
aI29
aI39
aI49
aI59
aI69
aI79
aI89
aI99
aI109
aI119
aI129
aI139
aI149
aI159
aI169
aI179
aI189
aI199
aI209
aI219
aI229
aI239
aI249
aI259
aI269
aI279
aI289
aI299
aI309
aI319
aI329
aI339
aI349
aI359
aI369
aI379
aI389
aI399
aI409
aI419
aI429
aI439
aI449
aI459
aI469
aI479
aI489
aI499
aI509
aI519
aI529
aI539
aI549
aI559
aI569
aI579
aI589
aI599
aI609
aI619
aI629
aI639
aI649
aI659
aI669
aI679
aI689
aI699
aI709
aI719
aI729
aI739
aI749
aI759
aI769
aI779
aI789
aI799
a.