(lp0
F4.362033374718521e-06
aF4.0541251364789586e-06
aF5.114697956969395e-06
aF4.4903284739650215e-06
aF5.290889893259987e-06
aF7.314958909179954e-06
aF6.29012543780608e-06
aF1.0685378079273723e-05
aF5.629303855110537e-06
aF5.0958813424379915e-06
aF5.379063616051318e-06
aF5.053757784846032e-06
aF5.640049940349893e-06
aF5.241771198171311e-06
aF5.101868447082343e-06
aF5.524948265001828e-05
aF8.307485015324714e-06
aF5.218046786949296e-06
aF6.119676234489678e-06
aF5.39031859522332e-06
aF6.433082834092999e-06
aF5.176124095433595e-06
aF5.232208830512148e-06
aF5.242993056258083e-06
aF5.9811175272884045e-06
aF5.3207925202794285e-06
aF4.9003976245196754e-06
aF5.949685227966129e-06
aF4.853093927004707e-06
aF5.0804859305220166e-06
aF5.634224133102854e-06
aF5.031974346116353e-06
aF4.980571262311884e-06
aF5.767619388595106e-06
aF4.893541643029766e-06
aF5.788247228085808e-06
aF5.029514634333764e-06
aF5.066305945860929e-06
aF5.889731941216871e-06
aF4.975283949128162e-06
aF5.736042596225496e-06
aF5.043219258820014e-06
aF5.7759647127608475e-06
aF5.923443048582268e-06
aF5.942343897288538e-06
aF5.011318137878439e-06
aF5.671735260284005e-06
aF5.742542098963188e-06
aF5.101693895895717e-06
aF5.721191656195046e-06
aF5.021872679291139e-06
aF5.659787647930718e-06
aF5.662171069213375e-06
aF1.1641117172814837e-05
aF5.545613981272623e-06
aF5.066052731851821e-06
aF5.54167305047315e-06
aF5.7120074966767825e-06
aF5.059610795729576e-06
aF5.640066388440168e-06
aF5.609860954820195e-06
aF5.614979868217269e-06
aF5.103497591176751e-06
aF5.620929036132816e-06
aF5.584389604979815e-06
aF6.140669977996517e-06
aF5.369054161229409e-06
aF5.591590965635074e-06
aF1.0701298757316452e-05
aF5.561775831440383e-06
aF8.040669474182464e-06
aF5.953248980734571e-06
aF6.366600363877571e-06
aF6.392216634527783e-06
aF7.937190140603436e-06
aF6.060930583775665e-06
aF5.968221370558109e-06
aF5.566691460517202e-06
aF5.619000549676674e-06
aF5.591741901050052e-06
aF1.0313975646071626e-05
aF5.561123180408852e-06
aF5.543275722292663e-06
aF6.032007916659969e-06
aF5.719697395623685e-06
aF5.555326978119136e-06
aF5.533500349959771e-06
aF5.55809359547607e-06
aF5.559502351679405e-06
aF5.652824623306666e-06
aF5.660774533308777e-06
aF1.0064053280628763e-05
aF5.5591783976313135e-06
aF5.949616985901836e-06
aF5.630129145223943e-06
aF5.538339065972453e-06
aF5.621838344182695e-06
aF6.161175771697734e-06
aF5.584854138906476e-06
aF5.516432677792693e-06
aF6.970742734496991e-06
aF1.1857611658943406e-05
aF6.037218607575547e-06
aF6.536882028419254e-06
aF5.887156640305928e-06
aF6.117376605361478e-06
aF6.167517117279046e-06
aF6.195109001179391e-06
aF5.574363211683395e-06
aF5.576871332720789e-06
aF9.642243567835446e-06
aF5.841436237977886e-06
aF5.503632687088085e-06
aF5.613135671553898e-06
aF5.863978523616647e-06
aF5.6300534720658495e-06
aF5.722071080723994e-06
aF5.562679799332128e-06
aF9.56369887794207e-06
aF5.82128321613388e-06
aF5.454556269499662e-06
aF5.801357164448578e-06
aF5.543599947345817e-06
aF5.551142709970419e-06
aF5.749057351753493e-06
aF5.547133898685293e-06
aF1.112480142166007e-05
aF6.329558998424689e-06
aF7.397455641644788e-06
aF5.900883745981607e-06
aF6.0031333580684626e-06
aF5.630696958461822e-06
aF5.796526924336478e-06
aF9.349744714779483e-06
aF5.932080289343897e-06
aF5.805258906681226e-06
aF5.592917159079638e-06
aF5.8022853150290275e-06
aF5.836596328426358e-06
aF5.6069540342466185e-06
aF9.622951349053301e-06
aF5.573608924705213e-06
aF5.784404356229888e-06
aF5.740671128766392e-06
aF6.025711134211456e-06
aF6.951924785889939e-06
aF1.0982235047430545e-05
aF5.85459081993979e-06
aF5.646362032730746e-06
aF5.861546494798849e-06
aF5.808794268807805e-06
aF5.771760182426626e-06
aF5.962871113181148e-06
aF9.265405421424083e-06
aF5.7649195922971514e-06
aF5.888580574934101e-06
aF5.796813854139319e-06
aF5.7611807514366795e-06
aF5.770132605581087e-06
aF9.278782684778444e-06
aF6.891757735539925e-06
aF6.543683618077214e-06
aF7.472677925410105e-06
aF5.908302235597522e-06
aF9.352401717305743e-06
aF5.764082408178557e-06
aF6.559567095768462e-06
aF5.766711979269786e-06
aF5.781402292310873e-06
aF5.762487584621233e-06
aF9.401254799601904e-06
aF5.8051294707891985e-06
aF5.783810046902131e-06
aF5.735233333615081e-06
aF6.004210645153713e-06
aF1.1290770578855635e-05
aF6.584365432975956e-06
aF6.260944995466653e-06
aF5.792272875045099e-06
aF5.805638341531843e-06
aF5.7286951474716e-06
aF9.076596305085382e-06
aF5.911669917828677e-06
aF5.755429713556567e-06
aF5.7978289071076246e-06
aF5.929647740696136e-06
aF9.12493747929613e-06
aF5.729058602501282e-06
aF6.486437303947889e-06
aF7.131992091349785e-06
aF5.982313157009238e-06
aF9.40236026631976e-06
aF5.866143846635032e-06
aF5.752910966194931e-06
aF5.700249948454519e-06
aF5.911785808345182e-06
aF9.16163769957175e-06
aF5.849284593478765e-06
aF5.799454245542332e-06
aF5.841083426456706e-06
a.