(lp0
F1.9115969789140763e-06
aF1.7448133498376703e-06
aF1.7448133498850402e-06
aF1.7608502372912226e-06
aF1.6729680943114998e-06
aF1.5673384625832415e-06
aF1.5597018495278852e-06
aF1.557181767246618e-06
aF1.5495196988110949e-06
aF1.5562195539473578e-06
aF1.565200210933426e-06
aF1.540610316874691e-06
aF1.6717838318368848e-06
aF1.6779166195313168e-06
aF1.5677661128918886e-06
aF1.5884536976606967e-06
aF1.5606721486057208e-06
aF1.555934453746725e-06
aF1.5618240241104488e-06
aF1.5626343089163442e-06
aF1.5572581333482089e-06
aF1.5797791994791186e-06
aF1.5925326450921095e-06
aF1.7581774227097096e-06
aF1.5888065091871794e-06
aF1.593819886915016e-06
aF1.5728028834647875e-06
aF1.559243652716599e-06
aF1.5886472462732363e-06
aF1.560068406933605e-06
aF1.5722357486244999e-06
aF1.59887767446798e-06
aF1.616518250607588e-06
aF1.6316117917223576e-06
aF1.5754638188647211e-06
aF1.5630619592599261e-06
aF1.5586120842007438e-06
aF1.6023382659777645e-06
aF1.5803324533964932e-06
aF1.5828407870683847e-06
aF1.5630098067887498e-06
aF1.5691712496981207e-06
aF1.5822067705784092e-06
aF1.663462593771602e-06
aF1.5922847318831955e-06
aF1.5766352089022338e-06
aF1.569294735354881e-06
aF1.670776386339945e-06
aF1.5877173099751734e-06
aF1.5734110972807969e-06
aF1.5775266027984614e-06
aF1.578769884885444e-06
aF1.594248157920568e-06
aF1.5756538856691468e-06
aF1.5983236729284882e-06
aF1.5585563575808742e-06
aF1.5971614461612783e-06
aF1.5736057518998288e-06
aF1.5662874575302099e-06
aF1.6030472652062144e-06
aF1.5776090811471954e-06
aF1.5916869410707634e-06
aF1.5652002109119972e-06
aF1.5960712191859239e-06
aF1.576055950090668e-06
aF1.5729756714695971e-06
aF1.5985186396759177e-06
aF1.568784926915779e-06
aF1.5603659028504335e-06
aF1.6042385768275025e-06
aF1.5559846474724164e-06
aF1.5710804029768335e-06
aF1.5936711781520589e-06
aF1.6106236109182171e-06
aF1.6004385981792288e-06
aF1.8844186749969606e-06
aF1.604188591743563e-06
aF1.589378902722434e-06
aF1.5668241995300215e-06
aF1.5727375480230065e-06
aF1.5900672857239714e-06
aF1.5680164447998068e-06
aF1.5937961064843508e-06
aF1.5821534919067761e-06
aF1.6023303219783964e-06
aF1.5732559497302834e-06
aF1.570803904892652e-06
aF1.59814872503797e-06
aF1.5737051669298242e-06
aF1.5676235627992698e-06
aF1.6270920225595518e-06
aF1.6307422724807758e-06
aF1.6060339198917877e-06
aF1.5954996917887072e-06
aF1.5951807499156328e-06
aF1.5633292407102317e-06
aF1.5976046432174736e-06
aF1.5833971689143224e-06
aF1.5889153656531512e-06
aF1.5653285059698875e-06
aF1.5766324474664417e-06
aF1.6823009338616386e-06
aF1.594346864518418e-06
aF1.5929563621706567e-06
aF1.6289812030813826e-06
aF1.56774190626126e-06
aF1.5799481522117647e-06
aF1.5666257120010656e-06
aF1.5942725866208506e-06
aF1.6028723173601057e-06
aF1.61339755898446e-06
aF1.627744071805992e-06
aF1.5731476949837195e-06
aF1.5854573318363875e-06
aF1.5907476698219092e-06
aF1.5708407712728433e-06
aF1.5767138736358733e-06
aF1.5917290280847514e-06
aF1.7167824878441466e-06
aF1.5669108122663053e-06
aF1.569759458245821e-06
aF1.5732975245907523e-06
aF1.5635313315900529e-06
aF1.5761673726464022e-06
aF1.5672529324820062e-06
aF1.5685603206553165e-06
aF1.5591390251174956e-06
aF1.5996795188599755e-06
aF1.5696756213610693e-06
aF1.6213539889695137e-06
aF1.567256849949802e-06
aF1.5709346130862806e-06
aF1.5764863211495082e-06
aF1.5855933871753832e-06
aF1.5687164469924211e-06
aF1.5676529113625875e-06
aF1.5706316823117134e-06
aF1.5935552871695379e-06
aF1.6128263053222754e-06
aF1.5673995554986879e-06
aF1.5664740629740776e-06
aF1.5610441725074692e-06
aF1.5878985746424364e-06
aF1.5652893047590764e-06
aF1.5906822719847665e-06
aF1.5745147865861904e-06
aF1.5686912340854356e-06
aF1.569621190663236e-06
aF1.5667500845619383e-06
aF1.568963533872155e-06
aF1.575395847933522e-06
aF1.6035199313716033e-06
aF1.5716568923839527e-06
aF1.5685325511650593e-06
aF1.5644552716168855e-06
aF1.5646245278206222e-06
aF1.5735353065437695e-06
aF1.5777049231061643e-06
aF1.6061094030065623e-06
aF1.5975947234769803e-06
aF1.5712563770854042e-06
aF1.5688431581798954e-06
aF1.5737794537274543e-06
aF1.5718496520828854e-06
aF1.5882155742088578e-06
aF1.5747837002606273e-06
aF1.570808320073882e-06
aF1.5946775372538148e-06
aF1.579548006008114e-06
aF1.5811993644744609e-06
aF1.587633096697142e-06
aF1.6511280913418042e-06
aF1.5646069387936233e-06
aF1.600739428060306e-06
aF1.5734110972987633e-06
aF1.5797791994597402e-06
aF1.596295463791404e-06
aF1.5696689166141756e-06
aF1.5659886165482358e-06
aF1.6068961181664082e-06
aF1.573209794448117e-06
aF1.5684428343113418e-06
aF1.5715098059322769e-06
aF1.5769141113253228e-06
aF1.5951588502779539e-06
aF1.5914110376146957e-06
aF1.5946326160525877e-06
aF1.568817040865337e-06
aF1.5795909839665208e-06
aF1.5704670623895375e-06
aF1.5694319340737054e-06
aF1.6011495669114121e-06
aF1.6506194868625735e-06
aF1.5681761281824097e-06
aF1.624347541317151e-06
aF1.5633019670740023e-06
aF1.5757503662276523e-06
aF1.565265006414999e-06
aF1.6225784211318361e-06
aF1.5847010660365868e-06
a.