(lp0
F7.902978114202598e-06
aF5.959307360257071e-06
aF5.478200738480155e-06
aF6.190238539289795e-06
aF6.466073002400207e-06
aF9.280012179289088e-06
aF1.1836139299816751e-05
aF1.3871907606954892e-05
aF1.0629961723983192e-05
aF1.0253344332625147e-05
aF6.769315964473579e-06
aF7.868766087687126e-06
aF8.787227413576532e-06
aF1.0467963705654679e-05
aF8.292139915226924e-06
aF4.480626157073786e-05
aF6.440413982686015e-06
aF6.3142571349790926e-06
aF6.47687680034443e-06
aF6.391661844943996e-06
aF7.101439208392028e-06
aF6.597867058828073e-06
aF6.500656898908899e-06
aF6.558552386657369e-06
aF7.3117942968110574e-06
aF6.5168975996134396e-06
aF6.637608301881908e-06
aF7.302282131616623e-06
aF6.668690779865128e-06
aF6.6529561971056715e-06
aF7.377795917582188e-06
aF6.754736975702614e-06
aF6.75259872415588e-06
aF7.444889142137152e-06
aF6.727795005092827e-06
aF7.663493928878513e-06
aF7.465387802790554e-06
aF7.310794945440373e-06
aF7.599675340948591e-06
aF6.811828295028022e-06
aF7.527793177526225e-06
aF6.845154474394208e-06
aF7.467371498118746e-06
aF7.307572221687441e-06
aF7.909820519469374e-06
aF6.867692443522777e-06
aF7.4902500501833225e-06
aF7.669106839411911e-06
aF6.910654795450803e-06
aF7.511164881032073e-06
aF6.921897943301451e-06
aF7.535610031816567e-06
aF1.3876204282502907e-05
aF7.121803509685757e-06
aF7.465841721356852e-06
aF7.036298899032139e-06
aF7.541275965909415e-06
aF7.449521297884539e-06
aF7.494173391022688e-06
aF7.02073548154658e-06
aF7.546696313937206e-06
aF8.023616892873428e-06
aF7.067227181882196e-06
aF7.835021803699327e-06
aF7.545133475822206e-06
aF7.462498273332929e-06
aF7.477497949117374e-06
aF7.084719517895538e-06
aF1.2606202078965606e-05
aF7.859357780404252e-06
aF7.508696555528075e-06
aF7.564956165140302e-06
aF7.2028032163349385e-06
aF7.739488548519897e-06
aF7.60567560413013e-06
aF7.5484784977712574e-06
aF7.517259731269424e-06
aF7.719088471877565e-06
aF7.496493768000411e-06
aF7.541025565359405e-06
aF1.2222404844767479e-05
aF7.4874271584720685e-06
aF7.516701664621768e-06
aF7.511830793667346e-06
aF7.5180928163764725e-06
aF7.598501023908231e-06
aF8.251144469731008e-06
aF7.6170841486248e-06
aF7.613521305848849e-06
aF7.579246813653148e-06
aF7.580830529753052e-06
aF1.1839685344579312e-05
aF7.858419708650072e-06
aF7.734283707087134e-06
aF7.547263070528898e-06
aF7.548696543144829e-06
aF7.588853515479987e-06
aF7.808196836755453e-06
aF7.738656714224423e-06
aF8.200751039569809e-06
aF7.623142367947367e-06
aF1.1903395400245958e-05
aF7.663576967767648e-06
aF7.872754749413958e-06
aF7.883428384708341e-06
aF7.920769981733386e-06
aF7.608378993681473e-06
aF7.992547100141363e-06
aF7.688760608991617e-06
aF7.606849698687897e-06
aF1.2296565148340725e-05
aF8.003323209632944e-06
aF7.683286948619262e-06
aF8.081353317940535e-06
aF7.875422557976001e-06
aF7.63411140179779e-06
aF7.8625158135992e-06
aF7.789687018029136e-06
aF1.1560897797052035e-05
aF7.857326441310874e-06
aF7.620092721727037e-06
aF8.1333834931857e-06
aF7.682581736332388e-06
aF7.63986969686234e-06
aF7.859049872181458e-06
aF8.145822409118868e-06
aF1.1697179399888904e-05
aF7.64949506251611e-06
aF7.859715813237539e-06
aF7.64540103025542e-06
aF7.852933231910849e-06
aF7.747663289454508e-06
aF8.026064239439942e-06
aF1.1576717855545561e-05
aF7.738950453880602e-06
aF7.862980230253877e-06
aF7.853626641678808e-06
aF7.829626785632835e-06
aF8.04087227119888e-06
aF7.684234969888491e-06
aF1.1453840701671817e-05
aF8.010312323911352e-06
aF8.053343559138172e-06
aF7.893266887894552e-06
aF7.87829236747939e-06
aF7.668883494690198e-06
aF1.1339453987021029e-05
aF8.199617188238319e-06
aF7.792076041711206e-06
aF7.894510637578377e-06
aF7.94078693479191e-06
aF7.92129392762058e-06
aF1.1356296462257385e-05
aF7.781347695359499e-06
aF8.333056395201766e-06
aF8.048379226605034e-06
aF7.974480159926063e-06
aF7.955595344720776e-06
aF7.862956498304759e-06
aF1.1130321520335328e-05
aF7.872139478495905e-06
aF7.88048687451623e-06
aF7.947448501273704e-06
aF7.980815689600857e-06
aF1.1406134115277107e-05
aF7.996494421454454e-06
aF7.943387229240711e-06
aF7.913440273964191e-06
aF8.555840749395618e-06
aF8.248393801962681e-06
aF1.1559088337441556e-05
aF7.961904351530559e-06
aF7.885921540248362e-06
aF7.875033377004733e-06
aF7.875486307139974e-06
aF1.1524034395691275e-05
aF7.959007555764131e-06
aF7.923159365685835e-06
aF8.232101631332632e-06
aF7.89991328680944e-06
aF8.051899662982277e-06
aF1.1181904785495937e-05
aF8.060717990306851e-06
aF8.009867455006793e-06
aF7.956584660995439e-06
aF7.948088326468992e-06
aF1.1171210008915003e-05
aF7.943582148182043e-06
aF8.060054759468245e-06
aF8.046533577836917e-06
aF8.036646830129286e-06
aF1.1347033325493545e-05
aF8.248643666501116e-06
aF7.967456321218493e-06
aF7.944690469488389e-06
aF8.388470334141147e-06
aF1.1252001200076105e-05
aF8.179071759553663e-06
aF8.199604119994177e-06
aF8.416415101376629e-06
a.